target datalayout = "e-m:e-p270:32:32-p271:32:32-p272:64:64-i64:64-i128:128-f80:128-n8:16:32:64-S128"
target triple = "x86_64-pc-linux-gnu"

%"class.(anonymous namespace)::MarrHildrethHashImpl" = type <{ %"class.cv::img_hash::ImgHashBase::ImgHashImpl", float, [4 x i8], %"class.cv::Mat", %"class.cv::Mat", %"class.cv::Mat", %"class.cv::Mat", %"class.cv::Mat", %"class.cv::Mat", %"class.cv::Mat", float, [4 x i8] }>
%"class.cv::img_hash::ImgHashBase::ImgHashImpl" = type { ptr }
%"class.cv::Mat" = type { i32, i32, i32, i32, ptr, ptr, ptr, ptr, ptr, ptr, %"struct.cv::MatSize", %"struct.cv::MatStep" }
%"struct.cv::MatSize" = type { ptr }
%"struct.cv::MatStep" = type { ptr, [2 x i64] }

; Function Attrs: mustprogress uwtable
define void @_ZN2cv8img_hash16marrHildrethHashERKNS_11_InputArrayERKNS_12_OutputArrayEff(ptr noundef nonnull align 8 dereferenceable(24) %0, ptr noundef nonnull align 8 dereferenceable(24) %1, float noundef %2, float noundef %3) #4 personality ptr @__gxx_personality_v0 {
  %5 = alloca ptr, align 8
  %6 = alloca ptr, align 8
  %7 = alloca float, align 4
  %8 = alloca float, align 4
  %9 = alloca %"class.(anonymous namespace)::MarrHildrethHashImpl", align 8
  %10 = alloca ptr, align 8
  %11 = alloca i32, align 4
  store ptr %0, ptr %5, align 8, !tbaa !39
  store ptr %1, ptr %6, align 8, !tbaa !41
  store float %2, ptr %7, align 4, !tbaa !28
  store float %3, ptr %8, align 4, !tbaa !28
  call void @llvm.lifetime.start.p0(i64 696, ptr %9) #3
  %12 = load float, ptr %7, align 4, !tbaa !28
  %13 = load float, ptr %8, align 4, !tbaa !28
  call void @_ZN12_GLOBAL__N_120MarrHildrethHashImplC2Eff(ptr noundef nonnull align 8 dereferenceable(696) %9, float noundef %12, float noundef %13)
  %14 = load ptr, ptr %5, align 8, !tbaa !39
  %15 = load ptr, ptr %6, align 8, !tbaa !41
  invoke void @_ZN12_GLOBAL__N_120MarrHildrethHashImpl7computeERKN2cv11_InputArrayERKNS1_12_OutputArrayE(ptr noundef nonnull align 8 dereferenceable(696) %9, ptr noundef nonnull align 8 dereferenceable(24) %14, ptr noundef nonnull align 8 dereferenceable(24) %15)
          to label %16 unwind label %17

16:                                               ; preds = %4
  call void @_ZN12_GLOBAL__N_120MarrHildrethHashImplD2Ev(ptr noundef nonnull align 8 dereferenceable(696) %9) #3
  call void @llvm.lifetime.end.p0(i64 696, ptr %9) #3
  ret void

17:                                               ; preds = %4
  %18 = landingpad { ptr, i32 }
          cleanup
  %19 = extractvalue { ptr, i32 } %18, 0
  store ptr %19, ptr %10, align 8
  %20 = extractvalue { ptr, i32 } %18, 1
  store i32 %20, ptr %11, align 4
  call void @_ZN12_GLOBAL__N_120MarrHildrethHashImplD2Ev(ptr noundef nonnull align 8 dereferenceable(696) %9) #3
  call void @llvm.lifetime.end.p0(i64 696, ptr %9) #3
  br label %21

21:                                               ; preds = %17
  %22 = load ptr, ptr %10, align 8
  %23 = load i32, ptr %11, align 4
  %24 = insertvalue { ptr, i32 } poison, ptr %22, 0
  %25 = insertvalue { ptr, i32 } %24, i32 %23, 1
  resume { ptr, i32 } %25
}