; Function Attrs: mustprogress uwtable
define void @_ZN2cv8img_hash16marrHildrethHashERKNS_11_InputArrayERKNS_12_OutputArrayEff(ptr noundef nonnull align 8 dereferenceable(24) %0, ptr noundef nonnull align 8 dereferenceable(24) %1, float noundef %2, float noundef %3) local_unnamed_addr #3 personality ptr @__gxx_personality_v0 {
  %5 = alloca %"class.(anonymous namespace)::MarrHildrethHashImpl", align 8
  call void @llvm.lifetime.start.p0(i64 696, ptr nonnull %5) #19
  call fastcc void @_ZN12_GLOBAL__N_120MarrHildrethHashImplC2Eff(ptr noundef nonnull align 8 dereferenceable(696) %5, float noundef %2, float noundef %3)
  invoke void @_ZN12_GLOBAL__N_120MarrHildrethHashImpl7computeERKN2cv11_InputArrayERKNS1_12_OutputArrayE(ptr noundef nonnull align 8 dereferenceable(696) %5, ptr noundef nonnull align 8 dereferenceable(24) %0, ptr noundef nonnull align 8 dereferenceable(24) %1)
          to label %6 unwind label %14

6:                                                ; preds = %4
  %7 = getelementptr inbounds nuw i8, ptr %5, i64 592
  call void @_ZN2cv3MatD1Ev(ptr noundef nonnull align 8 dereferenceable(96) %7) #19
  %8 = getelementptr inbounds nuw i8, ptr %5, i64 496
  call void @_ZN2cv3MatD1Ev(ptr noundef nonnull align 8 dereferenceable(96) %8) #19
  %9 = getelementptr inbounds nuw i8, ptr %5, i64 400
  call void @_ZN2cv3MatD1Ev(ptr noundef nonnull align 8 dereferenceable(96) %9) #19
  %10 = getelementptr inbounds nuw i8, ptr %5, i64 304
  call void @_ZN2cv3MatD1Ev(ptr noundef nonnull align 8 dereferenceable(96) %10) #19
  %11 = getelementptr inbounds nuw i8, ptr %5, i64 208
  call void @_ZN2cv3MatD1Ev(ptr noundef nonnull align 8 dereferenceable(96) %11) #19
  %12 = getelementptr inbounds nuw i8, ptr %5, i64 112
  call void @_ZN2cv3MatD1Ev(ptr noundef nonnull align 8 dereferenceable(96) %12) #19
  %13 = getelementptr inbounds nuw i8, ptr %5, i64 16
  call void @_ZN2cv3MatD1Ev(ptr noundef nonnull align 8 dereferenceable(96) %13) #19
  call void @llvm.lifetime.end.p0(i64 696, ptr nonnull %5) #19
  ret void

14:                                               ; preds = %4
  %15 = landingpad { ptr, i32 }
          cleanup
  call void @_ZN12_GLOBAL__N_120MarrHildrethHashImplD2Ev(ptr noundef nonnull align 8 dereferenceable(696) %5) #19
  call void @llvm.lifetime.end.p0(i64 696, ptr nonnull %5) #19
  resume { ptr, i32 } %15
}